; Function Attrs: mustprogress uwtable
define hidden noundef i32 @_ZNK18OpenImageIO_v2_6_09ICOOutput8supportsENS_17basic_string_viewIcSt11char_traitsIcEEE(ptr nocapture nonnull readnone align 8 %this, ptr nocapture noundef readonly %feature) unnamed_addr #5 align 2 personality ptr @__gxx_personality_v0 {
entry:
  %agg.tmp = alloca %"class.OpenImageIO_v2_6_0::basic_string_view", align 8
  %agg.tmp2 = alloca %"class.OpenImageIO_v2_6_0::basic_string_view", align 8
  %agg.tmp3 = alloca %"class.OpenImageIO_v2_6_0::basic_string_view", align 8
  %agg.tmp4 = alloca %"class.OpenImageIO_v2_6_0::basic_string_view", align 8
  %0 = load ptr, ptr %feature, align 8
  store ptr %0, ptr %agg.tmp, align 8
  %m_len.i = getelementptr inbounds i8, ptr %agg.tmp, i64 8
  %m_len.i.i = getelementptr inbounds i8, ptr %feature, i64 8
  %1 = load i64, ptr %m_len.i.i, align 8
  store i64 %1, ptr %m_len.i, align 8
  store ptr @.str.9, ptr %agg.tmp2, align 8
  %m_len.i1 = getelementptr inbounds i8, ptr %agg.tmp2, i64 8
  store i64 10, ptr %m_len.i1, align 8
  %call = call noundef zeroext i1 @_ZN18OpenImageIO_v2_6_07Strutil7iequalsENS_17basic_string_viewIcSt11char_traitsIcEEES4_(ptr noundef nonnull %agg.tmp, ptr noundef nonnull %agg.tmp2)
  br i1 %call, label %return, label %if.end

if.end:                                           ; preds = %entry
  %2 = load ptr, ptr %feature, align 8
  store ptr %2, ptr %agg.tmp3, align 8
  %m_len.i2 = getelementptr inbounds i8, ptr %agg.tmp3, i64 8
  %3 = load i64, ptr %m_len.i.i, align 8
  store i64 %3, ptr %m_len.i2, align 8
  store ptr @.str.10, ptr %agg.tmp4, align 8
  %m_len.i5 = getelementptr inbounds i8, ptr %agg.tmp4, i64 8
  store i64 5, ptr %m_len.i5, align 8
  %call5 = call noundef zeroext i1 @_ZN18OpenImageIO_v2_6_07Strutil7iequalsENS_17basic_string_viewIcSt11char_traitsIcEEES4_(ptr noundef nonnull %agg.tmp3, ptr noundef nonnull %agg.tmp4)
  %. = zext i1 %call5 to i32
  br label %return

return:                                           ; preds = %if.end, %entry
  %retval.0 = phi i32 [ 1, %entry ], [ %., %if.end ]
  ret i32 %retval.0
}